target datalayout = "e-m:e-p270:32:32-p271:32:32-p272:64:64-i64:64-i128:128-f80:128-n8:16:32:64-S128"
target triple = "x86_64-pc-linux-gnu"

%struct.AVTXContext = type { i32, i32, ptr, ptr, ptr, ptr, [4 x ptr], i32, [4 x ptr], ptr, i32, i64, i32, float, double, ptr }

; Function Attrs: nounwind uwtable
define internal void @ff_tx_dctIII_int32_c(ptr noundef %0, ptr noundef %1, ptr noundef %2, i64 noundef %3) #4 {
  %5 = alloca ptr, align 8
  %6 = alloca ptr, align 8
  %7 = alloca ptr, align 8
  %8 = alloca i64, align 8
  %9 = alloca ptr, align 8
  %10 = alloca ptr, align 8
  %11 = alloca i32, align 4
  %12 = alloca i32, align 4
  %13 = alloca ptr, align 8
  %14 = alloca i64, align 8
  %15 = alloca i64, align 8
  %16 = alloca i32, align 4
  %17 = alloca i32, align 4
  %18 = alloca i32, align 4
  %19 = alloca i64, align 8
  %20 = alloca i32, align 4
  %21 = alloca i32, align 4
  %22 = alloca i32, align 4
  %23 = alloca i32, align 4
  store ptr %0, ptr %5, align 8, !tbaa !17
  store ptr %1, ptr %6, align 8, !tbaa !8
  store ptr %2, ptr %7, align 8, !tbaa !8
  store i64 %3, ptr %8, align 8, !tbaa !30
  call void @llvm.lifetime.start.p0(i64 8, ptr %9) #10
  %24 = load ptr, ptr %6, align 8, !tbaa !8
  store ptr %24, ptr %9, align 8, !tbaa !19
  call void @llvm.lifetime.start.p0(i64 8, ptr %10) #10
  %25 = load ptr, ptr %7, align 8, !tbaa !8
  store ptr %25, ptr %10, align 8, !tbaa !19
  call void @llvm.lifetime.start.p0(i64 4, ptr %11) #10
  %26 = load ptr, ptr %5, align 8, !tbaa !17
  %27 = getelementptr inbounds nuw %struct.AVTXContext, ptr %26, i32 0, i32 0
  %28 = load i32, ptr %27, align 8, !tbaa !21
  store i32 %28, ptr %11, align 4, !tbaa !4
  call void @llvm.lifetime.start.p0(i64 4, ptr %12) #10
  %29 = load i32, ptr %11, align 4, !tbaa !4
  %30 = ashr i32 %29, 1
  store i32 %30, ptr %12, align 4, !tbaa !4
  call void @llvm.lifetime.start.p0(i64 8, ptr %13) #10
  %31 = load ptr, ptr %5, align 8, !tbaa !17
  %32 = getelementptr inbounds nuw %struct.AVTXContext, ptr %31, i32 0, i32 3
  %33 = load ptr, ptr %32, align 8, !tbaa !31
  store ptr %33, ptr %13, align 8, !tbaa !19
  call void @llvm.lifetime.start.p0(i64 8, ptr %14) #10
  call void @llvm.lifetime.start.p0(i64 8, ptr %15) #10
  %34 = load ptr, ptr %10, align 8, !tbaa !19
  %35 = load i32, ptr %11, align 4, !tbaa !4
  %36 = sub nsw i32 %35, 1
  %37 = sext i32 %36 to i64
  %38 = getelementptr inbounds i32, ptr %34, i64 %37
  %39 = load i32, ptr %38, align 4, !tbaa !4
  %40 = sext i32 %39 to i64
  store i64 %40, ptr %15, align 8, !tbaa !30
  %41 = load i64, ptr %15, align 8, !tbaa !30
  %42 = mul nsw i64 2, %41
  %43 = add nsw i64 %42, 1073741824
  %44 = ashr i64 %43, 31
  store i64 %44, ptr %15, align 8, !tbaa !30
  %45 = load i64, ptr %15, align 8, !tbaa !30
  %46 = trunc i64 %45 to i32
  %47 = load ptr, ptr %10, align 8, !tbaa !19
  %48 = load i32, ptr %11, align 4, !tbaa !4
  %49 = sext i32 %48 to i64
  %50 = getelementptr inbounds i32, ptr %47, i64 %49
  store i32 %46, ptr %50, align 4, !tbaa !4
  call void @llvm.lifetime.start.p0(i64 4, ptr %16) #10
  %51 = load i32, ptr %11, align 4, !tbaa !4
  %52 = sub nsw i32 %51, 2
  store i32 %52, ptr %16, align 4, !tbaa !4
  br label %53

53:                                               ; preds = %141, %4
  %54 = load i32, ptr %16, align 4, !tbaa !4
  %55 = icmp sge i32 %54, 2
  br i1 %55, label %57, label %56

56:                                               ; preds = %53
  call void @llvm.lifetime.end.p0(i64 4, ptr %16) #10
  br label %144

57:                                               ; preds = %53
  call void @llvm.lifetime.start.p0(i64 4, ptr %17) #10
  %58 = load ptr, ptr %10, align 8, !tbaa !19
  %59 = load i32, ptr %16, align 4, !tbaa !4
  %60 = sub nsw i32 %59, 0
  %61 = sext i32 %60 to i64
  %62 = getelementptr inbounds i32, ptr %58, i64 %61
  %63 = load i32, ptr %62, align 4, !tbaa !4
  store i32 %63, ptr %17, align 4, !tbaa !4
  call void @llvm.lifetime.start.p0(i64 4, ptr %18) #10
  %64 = load ptr, ptr %10, align 8, !tbaa !19
  %65 = load i32, ptr %16, align 4, !tbaa !4
  %66 = sub nsw i32 %65, 1
  %67 = sext i32 %66 to i64
  %68 = getelementptr inbounds i32, ptr %64, i64 %67
  %69 = load i32, ptr %68, align 4, !tbaa !4
  %70 = load ptr, ptr %10, align 8, !tbaa !19
  %71 = load i32, ptr %16, align 4, !tbaa !4
  %72 = add nsw i32 %71, 1
  %73 = sext i32 %72 to i64
  %74 = getelementptr inbounds i32, ptr %70, i64 %73
  %75 = load i32, ptr %74, align 4, !tbaa !4
  %76 = sub nsw i32 %69, %75
  store i32 %76, ptr %18, align 4, !tbaa !4
  br label %77

77:                                               ; preds = %57
  call void @llvm.lifetime.start.p0(i64 8, ptr %19) #10
  %78 = load i32, ptr %17, align 4, !tbaa !4
  %79 = sext i32 %78 to i64
  %80 = load ptr, ptr %13, align 8, !tbaa !19
  %81 = load i32, ptr %11, align 4, !tbaa !4
  %82 = load i32, ptr %16, align 4, !tbaa !4
  %83 = sub nsw i32 %81, %82
  %84 = sext i32 %83 to i64
  %85 = getelementptr inbounds i32, ptr %80, i64 %84
  %86 = load i32, ptr %85, align 4, !tbaa !4
  %87 = sext i32 %86 to i64
  %88 = mul nsw i64 %79, %87
  store i64 %88, ptr %19, align 8, !tbaa !30
  %89 = load i32, ptr %18, align 4, !tbaa !4
  %90 = sext i32 %89 to i64
  %91 = load ptr, ptr %13, align 8, !tbaa !19
  %92 = load i32, ptr %16, align 4, !tbaa !4
  %93 = sext i32 %92 to i64
  %94 = getelementptr inbounds i32, ptr %91, i64 %93
  %95 = load i32, ptr %94, align 4, !tbaa !4
  %96 = sext i32 %95 to i64
  %97 = mul nsw i64 %90, %96
  %98 = load i64, ptr %19, align 8, !tbaa !30
  %99 = sub nsw i64 %98, %97
  store i64 %99, ptr %19, align 8, !tbaa !30
  %100 = load i64, ptr %19, align 8, !tbaa !30
  %101 = add nsw i64 %100, 1073741824
  %102 = ashr i64 %101, 31
  %103 = trunc i64 %102 to i32
  %104 = load ptr, ptr %10, align 8, !tbaa !19
  %105 = load i32, ptr %16, align 4, !tbaa !4
  %106 = add nsw i32 %105, 1
  %107 = sext i32 %106 to i64
  %108 = getelementptr inbounds i32, ptr %104, i64 %107
  store i32 %103, ptr %108, align 4, !tbaa !4
  %109 = load i32, ptr %18, align 4, !tbaa !4
  %110 = sext i32 %109 to i64
  %111 = load ptr, ptr %13, align 8, !tbaa !19
  %112 = load i32, ptr %11, align 4, !tbaa !4
  %113 = load i32, ptr %16, align 4, !tbaa !4
  %114 = sub nsw i32 %112, %113
  %115 = sext i32 %114 to i64
  %116 = getelementptr inbounds i32, ptr %111, i64 %115
  %117 = load i32, ptr %116, align 4, !tbaa !4
  %118 = sext i32 %117 to i64
  %119 = mul nsw i64 %110, %118
  store i64 %119, ptr %19, align 8, !tbaa !30
  %120 = load i32, ptr %17, align 4, !tbaa !4
  %121 = sext i32 %120 to i64
  %122 = load ptr, ptr %13, align 8, !tbaa !19
  %123 = load i32, ptr %16, align 4, !tbaa !4
  %124 = sext i32 %123 to i64
  %125 = getelementptr inbounds i32, ptr %122, i64 %124
  %126 = load i32, ptr %125, align 4, !tbaa !4
  %127 = sext i32 %126 to i64
  %128 = mul nsw i64 %121, %127
  %129 = load i64, ptr %19, align 8, !tbaa !30
  %130 = add nsw i64 %129, %128
  store i64 %130, ptr %19, align 8, !tbaa !30
  %131 = load i64, ptr %19, align 8, !tbaa !30
  %132 = add nsw i64 %131, 1073741824
  %133 = ashr i64 %132, 31
  %134 = trunc i64 %133 to i32
  %135 = load ptr, ptr %10, align 8, !tbaa !19
  %136 = load i32, ptr %16, align 4, !tbaa !4
  %137 = sext i32 %136 to i64
  %138 = getelementptr inbounds i32, ptr %135, i64 %137
  store i32 %134, ptr %138, align 4, !tbaa !4
  call void @llvm.lifetime.end.p0(i64 8, ptr %19) #10
  br label %139

139:                                              ; preds = %77
  br label %140

140:                                              ; preds = %139
  call void @llvm.lifetime.end.p0(i64 4, ptr %18) #10
  call void @llvm.lifetime.end.p0(i64 4, ptr %17) #10
  br label %141

141:                                              ; preds = %140
  %142 = load i32, ptr %16, align 4, !tbaa !4
  %143 = sub nsw i32 %142, 2
  store i32 %143, ptr %16, align 4, !tbaa !4
  br label %53, !llvm.loop !163

144:                                              ; preds = %56
  %145 = load ptr, ptr %5, align 8, !tbaa !17
  %146 = getelementptr inbounds nuw %struct.AVTXContext, ptr %145, i32 0, i32 6
  %147 = getelementptr inbounds [4 x ptr], ptr %146, i64 0, i64 0
  %148 = load ptr, ptr %147, align 8, !tbaa !8
  %149 = load ptr, ptr %5, align 8, !tbaa !17
  %150 = getelementptr inbounds nuw %struct.AVTXContext, ptr %149, i32 0, i32 5
  %151 = load ptr, ptr %150, align 8, !tbaa !65
  %152 = getelementptr inbounds %struct.AVTXContext, ptr %151, i64 0
  %153 = load ptr, ptr %9, align 8, !tbaa !19
  %154 = load ptr, ptr %10, align 8, !tbaa !19
  call void %148(ptr noundef %152, ptr noundef %153, ptr noundef %154, i64 noundef 4)
  call void @llvm.lifetime.start.p0(i64 4, ptr %20) #10
  store i32 0, ptr %20, align 4, !tbaa !4
  br label %155

155:                                              ; preds = %215, %144
  %156 = load i32, ptr %20, align 4, !tbaa !4
  %157 = load i32, ptr %12, align 4, !tbaa !4
  %158 = icmp slt i32 %156, %157
  br i1 %158, label %160, label %159

159:                                              ; preds = %155
  call void @llvm.lifetime.end.p0(i64 4, ptr %20) #10
  br label %218

160:                                              ; preds = %155
  call void @llvm.lifetime.start.p0(i64 4, ptr %21) #10
  %161 = load ptr, ptr %9, align 8, !tbaa !19
  %162 = load i32, ptr %20, align 4, !tbaa !4
  %163 = sext i32 %162 to i64
  %164 = getelementptr inbounds i32, ptr %161, i64 %163
  %165 = load i32, ptr %164, align 4, !tbaa !4
  store i32 %165, ptr %21, align 4, !tbaa !4
  call void @llvm.lifetime.start.p0(i64 4, ptr %22) #10
  %166 = load ptr, ptr %9, align 8, !tbaa !19
  %167 = load i32, ptr %11, align 4, !tbaa !4
  %168 = load i32, ptr %20, align 4, !tbaa !4
  %169 = sub nsw i32 %167, %168
  %170 = sub nsw i32 %169, 1
  %171 = sext i32 %170 to i64
  %172 = getelementptr inbounds i32, ptr %166, i64 %171
  %173 = load i32, ptr %172, align 4, !tbaa !4
  store i32 %173, ptr %22, align 4, !tbaa !4
  call void @llvm.lifetime.start.p0(i64 4, ptr %23) #10
  %174 = load ptr, ptr %13, align 8, !tbaa !19
  %175 = load i32, ptr %11, align 4, !tbaa !4
  %176 = load i32, ptr %20, align 4, !tbaa !4
  %177 = add nsw i32 %175, %176
  %178 = sext i32 %177 to i64
  %179 = getelementptr inbounds i32, ptr %174, i64 %178
  %180 = load i32, ptr %179, align 4, !tbaa !4
  store i32 %180, ptr %23, align 4, !tbaa !4
  %181 = load i32, ptr %21, align 4, !tbaa !4
  %182 = load i32, ptr %22, align 4, !tbaa !4
  %183 = add nsw i32 %181, %182
  %184 = sext i32 %183 to i64
  store i64 %184, ptr %14, align 8, !tbaa !30
  %185 = load i32, ptr %21, align 4, !tbaa !4
  %186 = load i32, ptr %22, align 4, !tbaa !4
  %187 = sub nsw i32 %185, %186
  %188 = sext i32 %187 to i64
  store i64 %188, ptr %15, align 8, !tbaa !30
  %189 = load i32, ptr %23, align 4, !tbaa !4
  %190 = sext i32 %189 to i64
  %191 = load i64, ptr %15, align 8, !tbaa !30
  %192 = mul nsw i64 %191, %190
  store i64 %192, ptr %15, align 8, !tbaa !30
  %193 = load i64, ptr %15, align 8, !tbaa !30
  %194 = add nsw i64 %193, 1073741824
  %195 = ashr i64 %194, 31
  store i64 %195, ptr %15, align 8, !tbaa !30
  %196 = load i64, ptr %14, align 8, !tbaa !30
  %197 = load i64, ptr %15, align 8, !tbaa !30
  %198 = add nsw i64 %196, %197
  %199 = trunc i64 %198 to i32
  %200 = load ptr, ptr %9, align 8, !tbaa !19
  %201 = load i32, ptr %20, align 4, !tbaa !4
  %202 = sext i32 %201 to i64
  %203 = getelementptr inbounds i32, ptr %200, i64 %202
  store i32 %199, ptr %203, align 4, !tbaa !4
  %204 = load i64, ptr %14, align 8, !tbaa !30
  %205 = load i64, ptr %15, align 8, !tbaa !30
  %206 = sub nsw i64 %204, %205
  %207 = trunc i64 %206 to i32
  %208 = load ptr, ptr %9, align 8, !tbaa !19
  %209 = load i32, ptr %11, align 4, !tbaa !4
  %210 = load i32, ptr %20, align 4, !tbaa !4
  %211 = sub nsw i32 %209, %210
  %212 = sub nsw i32 %211, 1
  %213 = sext i32 %212 to i64
  %214 = getelementptr inbounds i32, ptr %208, i64 %213
  store i32 %207, ptr %214, align 4, !tbaa !4
  call void @llvm.lifetime.end.p0(i64 4, ptr %23) #10
  call void @llvm.lifetime.end.p0(i64 4, ptr %22) #10
  call void @llvm.lifetime.end.p0(i64 4, ptr %21) #10
  br label %215

215:                                              ; preds = %160
  %216 = load i32, ptr %20, align 4, !tbaa !4
  %217 = add nsw i32 %216, 1
  store i32 %217, ptr %20, align 4, !tbaa !4
  br label %155, !llvm.loop !164

218:                                              ; preds = %159
  call void @llvm.lifetime.end.p0(i64 8, ptr %15) #10
  call void @llvm.lifetime.end.p0(i64 8, ptr %14) #10
  call void @llvm.lifetime.end.p0(i64 8, ptr %13) #10
  call void @llvm.lifetime.end.p0(i64 4, ptr %12) #10
  call void @llvm.lifetime.end.p0(i64 4, ptr %11) #10
  call void @llvm.lifetime.end.p0(i64 8, ptr %10) #10
  call void @llvm.lifetime.end.p0(i64 8, ptr %9) #10
  ret void
}