; Function Attrs: nounwind uwtable
define internal void @ff_tx_dctIII_int32_c(ptr noundef readonly captures(none) %0, ptr noundef %1, ptr noundef %2, i64 %3) #3 {
  %5 = load i32, ptr %0, align 8, !tbaa !16
  %6 = ashr i32 %5, 1
  %7 = getelementptr inbounds nuw i8, ptr %0, i64 16
  %8 = load ptr, ptr %7, align 8, !tbaa !26
  %9 = sext i32 %5 to i64
  %10 = getelementptr i32, ptr %2, i64 %9
  %11 = getelementptr i8, ptr %10, i64 -4
  %12 = load i32, ptr %11, align 4, !tbaa !10
  %13 = sext i32 %12 to i64
  %14 = shl nsw i64 %13, 1
  %15 = add nsw i64 %14, 1073741824
  %16 = lshr i64 %15, 31
  %17 = trunc i64 %16 to i32
  store i32 %17, ptr %10, align 4, !tbaa !10
  %18 = icmp sgt i32 %5, 3
  br i1 %18, label %.lr.ph, label %._crit_edge

._crit_edge:                                      ; preds = %.lr.ph, %4
  %19 = getelementptr inbounds nuw i8, ptr %0, i64 40
  %20 = load ptr, ptr %19, align 8, !tbaa !4
  %21 = getelementptr inbounds nuw i8, ptr %0, i64 32
  %22 = load ptr, ptr %21, align 8, !tbaa !55
  tail call void %20(ptr noundef %22, ptr noundef %1, ptr noundef nonnull %2, i64 noundef 4) #16
  %23 = icmp sgt i32 %6, 0
  br i1 %23, label %.lr.ph76.preheader, label %._crit_edge77

.lr.ph76.preheader:                               ; preds = %._crit_edge
  %wide.trip.count = zext nneg i32 %6 to i64
  %invariant.gep = getelementptr i32, ptr %8, i64 %9
  br label %.lr.ph76

.lr.ph:                                           ; preds = %4, %.lr.ph
  %indvars.iv = phi i64 [ %indvars.iv.next, %.lr.ph ], [ %9, %4 ]
  %indvars.iv.next = add nsw i64 %indvars.iv, -2
  %24 = getelementptr inbounds nuw i32, ptr %2, i64 %indvars.iv.next
  %25 = load i32, ptr %24, align 4, !tbaa !10
  %26 = getelementptr i8, ptr %24, i64 -4
  %27 = load i32, ptr %26, align 4, !tbaa !10
  %28 = getelementptr inbounds nuw i8, ptr %24, i64 4
  %29 = load i32, ptr %28, align 4, !tbaa !10
  %30 = sub nsw i32 %27, %29
  %31 = sext i32 %25 to i64
  %32 = sub nsw i64 %9, %indvars.iv.next
  %33 = getelementptr inbounds i32, ptr %8, i64 %32
  %34 = load i32, ptr %33, align 4, !tbaa !10
  %35 = sext i32 %34 to i64
  %36 = mul nsw i64 %35, %31
  %37 = sext i32 %30 to i64
  %38 = getelementptr inbounds nuw i32, ptr %8, i64 %indvars.iv.next
  %39 = load i32, ptr %38, align 4, !tbaa !10
  %40 = sext i32 %39 to i64
  %41 = mul nsw i64 %40, %37
  %42 = add nsw i64 %36, 1073741824
  %43 = sub nsw i64 %42, %41
  %44 = lshr i64 %43, 31
  %45 = trunc i64 %44 to i32
  store i32 %45, ptr %28, align 4, !tbaa !10
  %46 = load i32, ptr %33, align 4, !tbaa !10
  %47 = sext i32 %46 to i64
  %48 = mul nsw i64 %47, %37
  %49 = load i32, ptr %38, align 4, !tbaa !10
  %50 = sext i32 %49 to i64
  %51 = mul nsw i64 %50, %31
  %52 = add nsw i64 %48, 1073741824
  %53 = add i64 %52, %51
  %54 = lshr i64 %53, 31
  %55 = trunc i64 %54 to i32
  store i32 %55, ptr %24, align 4, !tbaa !10
  %56 = icmp sgt i64 %indvars.iv, 5
  br i1 %56, label %.lr.ph, label %._crit_edge, !llvm.loop !154

._crit_edge77:                                    ; preds = %.lr.ph76, %._crit_edge
  ret void

.lr.ph76:                                         ; preds = %.lr.ph76.preheader, %.lr.ph76
  %indvars.iv79 = phi i64 [ 0, %.lr.ph76.preheader ], [ %indvars.iv.next80, %.lr.ph76 ]
  %57 = getelementptr inbounds nuw i32, ptr %1, i64 %indvars.iv79
  %58 = load i32, ptr %57, align 4, !tbaa !10
  %59 = trunc i64 %indvars.iv79 to i32
  %60 = xor i32 %59, -1
  %61 = add i32 %5, %60
  %62 = sext i32 %61 to i64
  %63 = getelementptr inbounds i32, ptr %1, i64 %62
  %64 = load i32, ptr %63, align 4, !tbaa !10
  %gep = getelementptr i32, ptr %invariant.gep, i64 %indvars.iv79
  %65 = load i32, ptr %gep, align 4, !tbaa !10
  %66 = add nsw i32 %64, %58
  %67 = sub nsw i32 %58, %64
  %68 = sext i32 %67 to i64
  %69 = sext i32 %65 to i64
  %70 = mul nsw i64 %68, %69
  %71 = add nsw i64 %70, 1073741824
  %72 = lshr i64 %71, 31
  %73 = trunc i64 %72 to i32
  %74 = add i32 %66, %73
  store i32 %74, ptr %57, align 4, !tbaa !10
  %75 = sub i32 %66, %73
  store i32 %75, ptr %63, align 4, !tbaa !10
  %indvars.iv.next80 = add nuw nsw i64 %indvars.iv79, 1
  %exitcond.not = icmp eq i64 %indvars.iv.next80, %wide.trip.count
  br i1 %exitcond.not, label %._crit_edge77, label %.lr.ph76, !llvm.loop !155
}